; ModuleID = '22/705.c'
source_filename = "22/705.c"
target datalayout = "e-m:e-p270:32:32-p271:32:32-p272:64:64-i64:64-f80:128-n8:16:32:64-S128"
target triple = "x86_64-pc-linux-gnu"

@.str = private unnamed_addr constant [4 x i8] c"No\0A\00", align 1
@.str.1 = private unnamed_addr constant [4 x i8] c"%d\0A\00", align 1

; Function Attrs: noinline nounwind uwtable
define dso_local i32 @main() #0 {
  %1 = alloca i32, align 4
  %2 = alloca [1500 x i8], align 16
  %3 = alloca i32, align 4
  %4 = alloca i32, align 4
  %5 = alloca i32, align 4
  %6 = alloca [300 x i32], align 16
  %7 = alloca i8, align 1
  %8 = alloca i32, align 4
  %9 = alloca i32, align 4
  store i32 0, i32* %1, align 4
  store i32 1, i32* %5, align 4
  %10 = bitcast [300 x i32]* %6 to i8*
  call void @llvm.memset.p0i8.i64(i8* align 16 %10, i8 0, i64 1200, i1 false)
  store i32 -1, i32* %8, align 4
  %11 = getelementptr inbounds [1500 x i8], [1500 x i8]* %2, i64 0, i64 0
  %12 = call i32 (i8*, ...) bitcast (i32 (...)* @gets to i32 (i8*, ...)*)(i8* %11)
  store i32 0, i32* %3, align 4
  br label %13

13:                                               ; preds = %47, %0
  %14 = load i32, i32* %3, align 4
  %15 = sext i32 %14 to i64
  %16 = getelementptr inbounds [1500 x i8], [1500 x i8]* %2, i64 0, i64 %15
  %17 = load i8, i8* %16, align 1
  %18 = sext i8 %17 to i32
  %19 = icmp ne i32 %18, 0
  br i1 %19, label %20, label %50

20:                                               ; preds = %13
  %21 = load i32, i32* %3, align 4
  %22 = sext i32 %21 to i64
  %23 = getelementptr inbounds [1500 x i8], [1500 x i8]* %2, i64 0, i64 %22
  %24 = load i8, i8* %23, align 1
  %25 = sext i8 %24 to i32
  %26 = icmp ne i32 %25, 44
  br i1 %26, label %27, label %43

27:                                               ; preds = %20
  %28 = load i32, i32* %5, align 4
  %29 = sext i32 %28 to i64
  %30 = getelementptr inbounds [300 x i32], [300 x i32]* %6, i64 0, i64 %29
  %31 = load i32, i32* %30, align 4
  %32 = mul nsw i32 10, %31
  %33 = load i32, i32* %3, align 4
  %34 = sext i32 %33 to i64
  %35 = getelementptr inbounds [1500 x i8], [1500 x i8]* %2, i64 0, i64 %34
  %36 = load i8, i8* %35, align 1
  %37 = sext i8 %36 to i32
  %38 = add nsw i32 %32, %37
  %39 = sub nsw i32 %38, 48
  %40 = load i32, i32* %5, align 4
  %41 = sext i32 %40 to i64
  %42 = getelementptr inbounds [300 x i32], [300 x i32]* %6, i64 0, i64 %41
  store i32 %39, i32* %42, align 4
  br label %46

43:                                               ; preds = %20
  %44 = load i32, i32* %5, align 4
  %45 = add nsw i32 %44, 1
  store i32 %45, i32* %5, align 4
  br label %46

46:                                               ; preds = %43, %27
  br label %47

47:                                               ; preds = %46
  %48 = load i32, i32* %3, align 4
  %49 = add nsw i32 %48, 1
  store i32 %49, i32* %3, align 4
  br label %13

50:                                               ; preds = %13
  %51 = load i32, i32* %5, align 4
  store i32 %51, i32* %4, align 4
  %52 = load i32, i32* %4, align 4
  %53 = icmp eq i32 %52, 1
  br i1 %53, label %54, label %56

54:                                               ; preds = %50
  %55 = call i32 (i8*, ...) @printf(i8* getelementptr inbounds ([4 x i8], [4 x i8]* @.str, i64 0, i64 0))
  br label %137

56:                                               ; preds = %50
  %57 = getelementptr inbounds [300 x i32], [300 x i32]* %6, i64 0, i64 1
  %58 = load i32, i32* %57, align 4
  %59 = getelementptr inbounds [300 x i32], [300 x i32]* %6, i64 0, i64 2
  %60 = load i32, i32* %59, align 8
  %61 = icmp eq i32 %58, %60
  br i1 %61, label %62, label %65

62:                                               ; preds = %56
  %63 = getelementptr inbounds [300 x i32], [300 x i32]* %6, i64 0, i64 1
  %64 = load i32, i32* %63, align 4
  store i32 %64, i32* %9, align 4
  br label %65

65:                                               ; preds = %62, %56
  %66 = getelementptr inbounds [300 x i32], [300 x i32]* %6, i64 0, i64 1
  %67 = load i32, i32* %66, align 4
  %68 = getelementptr inbounds [300 x i32], [300 x i32]* %6, i64 0, i64 2
  %69 = load i32, i32* %68, align 8
  %70 = icmp slt i32 %67, %69
  br i1 %70, label %71, label %76

71:                                               ; preds = %65
  %72 = getelementptr inbounds [300 x i32], [300 x i32]* %6, i64 0, i64 1
  %73 = load i32, i32* %72, align 4
  store i32 %73, i32* %8, align 4
  %74 = getelementptr inbounds [300 x i32], [300 x i32]* %6, i64 0, i64 2
  %75 = load i32, i32* %74, align 8
  store i32 %75, i32* %9, align 4
  br label %76

76:                                               ; preds = %71, %65
  %77 = getelementptr inbounds [300 x i32], [300 x i32]* %6, i64 0, i64 1
  %78 = load i32, i32* %77, align 4
  %79 = getelementptr inbounds [300 x i32], [300 x i32]* %6, i64 0, i64 2
  %80 = load i32, i32* %79, align 8
  %81 = icmp sgt i32 %78, %80
  br i1 %81, label %82, label %87

82:                                               ; preds = %76
  %83 = getelementptr inbounds [300 x i32], [300 x i32]* %6, i64 0, i64 2
  %84 = load i32, i32* %83, align 8
  store i32 %84, i32* %8, align 4
  %85 = getelementptr inbounds [300 x i32], [300 x i32]* %6, i64 0, i64 1
  %86 = load i32, i32* %85, align 4
  store i32 %86, i32* %9, align 4
  br label %87

87:                                               ; preds = %82, %76
  store i32 3, i32* %5, align 4
  br label %88

88:                                               ; preds = %125, %87
  %89 = load i32, i32* %5, align 4
  %90 = load i32, i32* %4, align 4
  %91 = icmp sle i32 %89, %90
  br i1 %91, label %92, label %128

92:                                               ; preds = %88
  %93 = load i32, i32* %5, align 4
  %94 = sext i32 %93 to i64
  %95 = getelementptr inbounds [300 x i32], [300 x i32]* %6, i64 0, i64 %94
  %96 = load i32, i32* %95, align 4
  %97 = load i32, i32* %9, align 4
  %98 = icmp sgt i32 %96, %97
  br i1 %98, label %99, label %105

99:                                               ; preds = %92
  %100 = load i32, i32* %9, align 4
  store i32 %100, i32* %8, align 4
  %101 = load i32, i32* %5, align 4
  %102 = sext i32 %101 to i64
  %103 = getelementptr inbounds [300 x i32], [300 x i32]* %6, i64 0, i64 %102
  %104 = load i32, i32* %103, align 4
  store i32 %104, i32* %9, align 4
  br label %105

105:                                              ; preds = %99, %92
  %106 = load i32, i32* %5, align 4
  %107 = sext i32 %106 to i64
  %108 = getelementptr inbounds [300 x i32], [300 x i32]* %6, i64 0, i64 %107
  %109 = load i32, i32* %108, align 4
  %110 = load i32, i32* %9, align 4
  %111 = icmp slt i32 %109, %110
  br i1 %111, label %112, label %124

112:                                              ; preds = %105
  %113 = load i32, i32* %5, align 4
  %114 = sext i32 %113 to i64
  %115 = getelementptr inbounds [300 x i32], [300 x i32]* %6, i64 0, i64 %114
  %116 = load i32, i32* %115, align 4
  %117 = load i32, i32* %8, align 4
  %118 = icmp sgt i32 %116, %117
  br i1 %118, label %119, label %124

119:                                              ; preds = %112
  %120 = load i32, i32* %5, align 4
  %121 = sext i32 %120 to i64
  %122 = getelementptr inbounds [300 x i32], [300 x i32]* %6, i64 0, i64 %121
  %123 = load i32, i32* %122, align 4
  store i32 %123, i32* %8, align 4
  br label %124

124:                                              ; preds = %119, %112, %105
  br label %125

125:                                              ; preds = %124
  %126 = load i32, i32* %5, align 4
  %127 = add nsw i32 %126, 1
  store i32 %127, i32* %5, align 4
  br label %88

128:                                              ; preds = %88
  %129 = load i32, i32* %8, align 4
  %130 = icmp eq i32 %129, -1
  br i1 %130, label %131, label %133

131:                                              ; preds = %128
  %132 = call i32 (i8*, ...) @printf(i8* getelementptr inbounds ([4 x i8], [4 x i8]* @.str, i64 0, i64 0))
  br label %136

133:                                              ; preds = %128
  %134 = load i32, i32* %8, align 4
  %135 = call i32 (i8*, ...) @printf(i8* getelementptr inbounds ([4 x i8], [4 x i8]* @.str.1, i64 0, i64 0), i32 %134)
  br label %136

136:                                              ; preds = %133, %131
  br label %137

137:                                              ; preds = %136, %54
  ret i32 0
}

; Function Attrs: argmemonly nounwind willreturn
declare void @llvm.memset.p0i8.i64(i8* nocapture writeonly, i8, i64, i1 immarg) #1

declare dso_local i32 @gets(...) #2

declare dso_local i32 @printf(i8*, ...) #2


!llvm.module.flags = !{!0}
!llvm.ident = !{!1}

!0 = !{i32 1, !"wchar_size", i32 4}
!1 = !{!"clang version 10.0.0-4ubuntu1 "}
